; Function Attrs: mustprogress nofree norecurse nosync nounwind ssp willreturn memory(read, inaccessiblemem: none) uwtable
define noundef zeroext i1 @_ZN6open3d8geometry16IntersectionTest12TriangleAABBERKN5Eigen6MatrixIdLi3ELi1ELi0ELi3ELi1EEES6_S6_S6_S6_(ptr noundef nonnull readonly align 8 captures(none) dereferenceable(24) %0, ptr noundef nonnull readonly align 8 captures(none) dereferenceable(24) %1, ptr noundef nonnull align 8 dereferenceable(24) %2, ptr noundef nonnull align 8 dereferenceable(24) %3, ptr noundef nonnull align 8 dereferenceable(24) %4) local_unnamed_addr #3 align 2 {
  %6 = alloca [3 x ptr], align 16
  call void @llvm.lifetime.start.p0(i64 24, ptr nonnull %6) #5
  store ptr %2, ptr %6, align 16, !tbaa !10
  %7 = getelementptr inbounds nuw i8, ptr %6, i64 8
  store ptr %3, ptr %7, align 8, !tbaa !10
  %8 = getelementptr inbounds nuw i8, ptr %6, i64 16
  store ptr %4, ptr %8, align 16, !tbaa !10
  %9 = call noundef i32 @_Z13triBoxOverlapPdS_PS_(ptr noundef nonnull %0, ptr noundef nonnull %1, ptr noundef nonnull %6)
  %10 = icmp ne i32 %9, 0
  call void @llvm.lifetime.end.p0(i64 24, ptr nonnull %6) #5
  ret i1 %10
}